target datalayout = "e-m:e-p270:32:32-p271:32:32-p272:64:64-i64:64-i128:128-f80:128-n8:16:32:64-S128"
target triple = "x86_64-unknown-linux-gnu"

@.str = private unnamed_addr constant [22 x i8] c"start >= 0 && nr >= 0\00", align 1
@.str.1 = private unnamed_addr constant [22 x i8] c"../qemu/util/bitmap.c\00", align 1
@__PRETTY_FUNCTION__.bitmap_set = private unnamed_addr constant [45 x i8] c"void bitmap_set(unsigned long *, long, long)\00", align 1

; Function Attrs: nounwind sspstrong uwtable
define dso_local void @bitmap_set(ptr noundef %map, i64 noundef %start, i64 noundef %nr) #0 {
entry:
  %map.addr = alloca ptr, align 8
  %start.addr = alloca i64, align 8
  %nr.addr = alloca i64, align 8
  %p = alloca ptr, align 8
  %size = alloca i64, align 8
  %bits_to_set = alloca i32, align 4
  %mask_to_set = alloca i64, align 8
  store ptr %map, ptr %map.addr, align 8
  store i64 %start, ptr %start.addr, align 8
  store i64 %nr, ptr %nr.addr, align 8
  %0 = load ptr, ptr %map.addr, align 8
  %1 = load i64, ptr %start.addr, align 8
  %div = udiv i64 %1, 64
  %add.ptr = getelementptr i64, ptr %0, i64 %div
  store ptr %add.ptr, ptr %p, align 8
  %2 = load i64, ptr %start.addr, align 8
  %3 = load i64, ptr %nr.addr, align 8
  %add = add i64 %2, %3
  store i64 %add, ptr %size, align 8
  %4 = load i64, ptr %start.addr, align 8
  %rem = urem i64 %4, 64
  %sub = sub i64 64, %rem
  %conv = trunc i64 %sub to i32
  store i32 %conv, ptr %bits_to_set, align 4
  %5 = load i64, ptr %start.addr, align 8
  %and = and i64 %5, 63
  %shl = shl i64 -1, %and
  store i64 %shl, ptr %mask_to_set, align 8
  %6 = load i64, ptr %start.addr, align 8
  %cmp = icmp sge i64 %6, 0
  br i1 %cmp, label %land.lhs.true, label %if.else

land.lhs.true:                                    ; preds = %entry
  %7 = load i64, ptr %nr.addr, align 8
  %cmp2 = icmp sge i64 %7, 0
  br i1 %cmp2, label %if.then, label %if.else

if.then:                                          ; preds = %land.lhs.true
  br label %if.end

if.else:                                          ; preds = %land.lhs.true, %entry
  call void @__assert_fail(ptr noundef @.str, ptr noundef @.str.1, i32 noundef 167, ptr noundef @__PRETTY_FUNCTION__.bitmap_set) #6
  unreachable

if.end:                                           ; preds = %if.then
  br label %while.cond

while.cond:                                       ; preds = %while.body, %if.end
  %8 = load i64, ptr %nr.addr, align 8
  %9 = load i32, ptr %bits_to_set, align 4
  %conv4 = sext i32 %9 to i64
  %sub5 = sub i64 %8, %conv4
  %cmp6 = icmp sge i64 %sub5, 0
  br i1 %cmp6, label %while.body, label %while.end

while.body:                                       ; preds = %while.cond
  %10 = load i64, ptr %mask_to_set, align 8
  %11 = load ptr, ptr %p, align 8
  %12 = load i64, ptr %11, align 8
  %or = or i64 %12, %10
  store i64 %or, ptr %11, align 8
  %13 = load i32, ptr %bits_to_set, align 4
  %conv8 = sext i32 %13 to i64
  %14 = load i64, ptr %nr.addr, align 8
  %sub9 = sub i64 %14, %conv8
  store i64 %sub9, ptr %nr.addr, align 8
  store i32 64, ptr %bits_to_set, align 4
  store i64 -1, ptr %mask_to_set, align 8
  %15 = load ptr, ptr %p, align 8
  %incdec.ptr = getelementptr i64, ptr %15, i32 1
  store ptr %incdec.ptr, ptr %p, align 8
  br label %while.cond, !llvm.loop !14

while.end:                                        ; preds = %while.cond
  %16 = load i64, ptr %nr.addr, align 8
  %tobool = icmp ne i64 %16, 0
  br i1 %tobool, label %if.then10, label %if.end15

if.then10:                                        ; preds = %while.end
  %17 = load i64, ptr %size, align 8
  %sub11 = sub i64 0, %17
  %and12 = and i64 %sub11, 63
  %shr = lshr i64 -1, %and12
  %18 = load i64, ptr %mask_to_set, align 8
  %and13 = and i64 %18, %shr
  store i64 %and13, ptr %mask_to_set, align 8
  %19 = load i64, ptr %mask_to_set, align 8
  %20 = load ptr, ptr %p, align 8
  %21 = load i64, ptr %20, align 8
  %or14 = or i64 %21, %19
  store i64 %or14, ptr %20, align 8
  br label %if.end15

if.end15:                                         ; preds = %if.then10, %while.end
  ret void
}