; Function Attrs: nounwind sspstrong uwtable
define dso_local void @bitmap_set(ptr noundef captures(none) %map, i64 noundef %start, i64 noundef %nr) local_unnamed_addr #2 {
entry:
  %add = add i64 %start, %nr
  %0 = or i64 %nr, %start
  %or.cond = icmp sgt i64 %0, -1
  br i1 %or.cond, label %while.cond.preheader, label %if.else

while.cond.preheader:                             ; preds = %entry
  %1 = and i64 %start, 63
  %shl = shl nsw i64 -1, %1
  %conv.neg = or i64 %start, -64
  %div14 = lshr i64 %start, 6
  %add.ptr = getelementptr i64, ptr %map, i64 %div14
  %sub515 = add i64 %conv.neg, %nr
  %cmp616 = icmp sgt i64 %sub515, -1
  br i1 %cmp616, label %while.body, label %while.end

if.else:                                          ; preds = %entry
  tail call void @__assert_fail(ptr noundef nonnull @.str, ptr noundef nonnull @.str.1, i32 noundef 167, ptr noundef nonnull @__PRETTY_FUNCTION__.bitmap_set) #10
  unreachable

while.body:                                       ; preds = %while.cond.preheader, %while.body
  %sub519 = phi i64 [ %sub5, %while.body ], [ %sub515, %while.cond.preheader ]
  %mask_to_set.018 = phi i64 [ -1, %while.body ], [ %shl, %while.cond.preheader ]
  %p.017 = phi ptr [ %incdec.ptr, %while.body ], [ %add.ptr, %while.cond.preheader ]
  %2 = load i64, ptr %p.017, align 8
  %or = or i64 %2, %mask_to_set.018
  store i64 %or, ptr %p.017, align 8
  %incdec.ptr = getelementptr i8, ptr %p.017, i64 8
  %sub5 = add nsw i64 %sub519, -64
  %cmp6 = icmp samesign ugt i64 %sub519, 63
  br i1 %cmp6, label %while.body, label %while.end, !llvm.loop !14

while.end:                                        ; preds = %while.body, %while.cond.preheader
  %p.0.lcssa = phi ptr [ %add.ptr, %while.cond.preheader ], [ %incdec.ptr, %while.body ]
  %nr.addr.0.lcssa = phi i64 [ %nr, %while.cond.preheader ], [ %sub519, %while.body ]
  %mask_to_set.0.lcssa = phi i64 [ %shl, %while.cond.preheader ], [ -1, %while.body ]
  %tobool.not = icmp eq i64 %nr.addr.0.lcssa, 0
  br i1 %tobool.not, label %if.end15, label %if.then10

if.then10:                                        ; preds = %while.end
  %sub11 = sub i64 0, %add
  %and12 = and i64 %sub11, 63
  %shr = lshr i64 -1, %and12
  %and13 = and i64 %mask_to_set.0.lcssa, %shr
  %3 = load i64, ptr %p.0.lcssa, align 8
  %or14 = or i64 %3, %and13
  store i64 %or14, ptr %p.0.lcssa, align 8
  br label %if.end15

if.end15:                                         ; preds = %if.then10, %while.end
  ret void
}